target datalayout = "e-m:e-p270:32:32-p271:32:32-p272:64:64-i64:64-i128:128-f80:128-n8:16:32:64-S128"
target triple = "x86_64-pc-linux-gnu"

%struct.AVEncryptionInitInfo = type { ptr, i32, ptr, i32, i32, ptr, i32, ptr }

; Function Attrs: alwaysinline nounwind willreturn memory(none) uwtable
define internal i32 @av_bswap32(i32 noundef %0) #4 {
  %2 = alloca i32, align 4
  store i32 %0, ptr %2, align 4, !tbaa !4
  %3 = load i32, ptr %2, align 4, !tbaa !4
  %4 = shl i32 %3, 8
  %5 = and i32 %4, 65280
  %6 = load i32, ptr %2, align 4, !tbaa !4
  %7 = lshr i32 %6, 8
  %8 = and i32 %7, 255
  %9 = or i32 %5, %8
  %10 = shl i32 %9, 16
  %11 = load i32, ptr %2, align 4, !tbaa !4
  %12 = lshr i32 %11, 16
  %13 = shl i32 %12, 8
  %14 = and i32 %13, 65280
  %15 = load i32, ptr %2, align 4, !tbaa !4
  %16 = lshr i32 %15, 16
  %17 = lshr i32 %16, 8
  %18 = and i32 %17, 255
  %19 = or i32 %14, %18
  %20 = or i32 %10, %19
  ret i32 %20
}

; Function Attrs: nounwind uwtable
define ptr @av_encryption_init_info_add_side_data(ptr noundef %0, ptr noundef %1) #0 {
  %3 = alloca ptr, align 8
  %4 = alloca ptr, align 8
  %5 = alloca ptr, align 8
  %6 = alloca ptr, align 8
  %7 = alloca ptr, align 8
  %8 = alloca ptr, align 8
  %9 = alloca i32, align 4
  %10 = alloca i32, align 4
  %11 = alloca i64, align 8
  %12 = alloca i32, align 4
  store ptr %0, ptr %4, align 8, !tbaa !35
  store ptr %1, ptr %5, align 8, !tbaa !32
  call void @llvm.lifetime.start.p0(i64 8, ptr %6) #5
  call void @llvm.lifetime.start.p0(i64 8, ptr %7) #5
  call void @llvm.lifetime.start.p0(i64 8, ptr %8) #5
  call void @llvm.lifetime.start.p0(i64 4, ptr %9) #5
  call void @llvm.lifetime.start.p0(i64 4, ptr %10) #5
  call void @llvm.lifetime.start.p0(i64 8, ptr %11) #5
  store i64 4, ptr %11, align 8, !tbaa !24
  store i32 0, ptr %10, align 4, !tbaa !4
  %13 = load ptr, ptr %4, align 8, !tbaa !35
  store ptr %13, ptr %6, align 8, !tbaa !35
  br label %14

14:                                               ; preds = %60, %2
  %15 = load ptr, ptr %6, align 8, !tbaa !35
  %16 = icmp ne ptr %15, null
  br i1 %16, label %17, label %64

17:                                               ; preds = %14
  %18 = load ptr, ptr %6, align 8, !tbaa !35
  %19 = getelementptr inbounds nuw %struct.AVEncryptionInitInfo, ptr %18, i32 0, i32 1
  %20 = load i32, ptr %19, align 8, !tbaa !41
  %21 = zext i32 %20 to i64
  %22 = add i64 16, %21
  %23 = load ptr, ptr %6, align 8, !tbaa !35
  %24 = getelementptr inbounds nuw %struct.AVEncryptionInitInfo, ptr %23, i32 0, i32 6
  %25 = load i32, ptr %24, align 8, !tbaa !46
  %26 = zext i32 %25 to i64
  %27 = add i64 %22, %26
  %28 = load i64, ptr %11, align 8, !tbaa !24
  %29 = add i64 %28, %27
  store i64 %29, ptr %11, align 8, !tbaa !24
  %30 = load i32, ptr %10, align 4, !tbaa !4
  %31 = icmp eq i32 %30, -1
  br i1 %31, label %35, label %32

32:                                               ; preds = %17
  %33 = load i64, ptr %11, align 8, !tbaa !24
  %34 = icmp ugt i64 %33, 4294967295
  br i1 %34, label %35, label %36

35:                                               ; preds = %32, %17
  store ptr null, ptr %3, align 8
  store i32 1, ptr %12, align 4
  br label %178

36:                                               ; preds = %32
  %37 = load i32, ptr %10, align 4, !tbaa !4
  %38 = add i32 %37, 1
  store i32 %38, ptr %10, align 4, !tbaa !4
  %39 = load ptr, ptr %6, align 8, !tbaa !35
  %40 = getelementptr inbounds nuw %struct.AVEncryptionInitInfo, ptr %39, i32 0, i32 3
  %41 = load i32, ptr %40, align 8, !tbaa !43
  %42 = icmp ne i32 %41, 0
  br i1 %42, label %43, label %59

43:                                               ; preds = %36
  %44 = load ptr, ptr %6, align 8, !tbaa !35
  %45 = getelementptr inbounds nuw %struct.AVEncryptionInitInfo, ptr %44, i32 0, i32 3
  %46 = load i32, ptr %45, align 8, !tbaa !43
  %47 = zext i32 %46 to i64
  %48 = load ptr, ptr %6, align 8, !tbaa !35
  %49 = getelementptr inbounds nuw %struct.AVEncryptionInitInfo, ptr %48, i32 0, i32 4
  %50 = load i32, ptr %49, align 4, !tbaa !44
  %51 = zext i32 %50 to i64
  %52 = mul i64 %47, %51
  %53 = load i64, ptr %11, align 8, !tbaa !24
  %54 = add i64 %53, %52
  store i64 %54, ptr %11, align 8, !tbaa !24
  %55 = load i64, ptr %11, align 8, !tbaa !24
  %56 = icmp ugt i64 %55, 4294967295
  br i1 %56, label %57, label %58

57:                                               ; preds = %43
  store ptr null, ptr %3, align 8
  store i32 1, ptr %12, align 4
  br label %178

58:                                               ; preds = %43
  br label %59

59:                                               ; preds = %58, %36
  br label %60

60:                                               ; preds = %59
  %61 = load ptr, ptr %6, align 8, !tbaa !35
  %62 = getelementptr inbounds nuw %struct.AVEncryptionInitInfo, ptr %61, i32 0, i32 7
  %63 = load ptr, ptr %62, align 8, !tbaa !49
  store ptr %63, ptr %6, align 8, !tbaa !35
  br label %14, !llvm.loop !52

64:                                               ; preds = %14
  %65 = load i64, ptr %11, align 8, !tbaa !24
  %66 = load ptr, ptr %5, align 8, !tbaa !32
  store i64 %65, ptr %66, align 8, !tbaa !24
  %67 = load ptr, ptr %5, align 8, !tbaa !32
  %68 = load i64, ptr %67, align 8, !tbaa !24
  %69 = call noalias ptr @av_malloc(i64 noundef %68)
  store ptr %69, ptr %7, align 8, !tbaa !23
  store ptr %69, ptr %8, align 8, !tbaa !23
  %70 = load ptr, ptr %7, align 8, !tbaa !23
  %71 = icmp ne ptr %70, null
  br i1 %71, label %73, label %72

72:                                               ; preds = %64
  store ptr null, ptr %3, align 8
  store i32 1, ptr %12, align 4
  br label %178

73:                                               ; preds = %64
  %74 = load i32, ptr %10, align 4, !tbaa !4
  %75 = call i32 @av_bswap32(i32 noundef %74) #6
  %76 = load ptr, ptr %8, align 8, !tbaa !23
  store i32 %75, ptr %76, align 1, !tbaa !26
  %77 = load ptr, ptr %8, align 8, !tbaa !23
  %78 = getelementptr inbounds i8, ptr %77, i64 4
  store ptr %78, ptr %8, align 8, !tbaa !23
  %79 = load ptr, ptr %4, align 8, !tbaa !35
  store ptr %79, ptr %6, align 8, !tbaa !35
  br label %80

80:                                               ; preds = %172, %73
  %81 = load ptr, ptr %6, align 8, !tbaa !35
  %82 = icmp ne ptr %81, null
  br i1 %82, label %83, label %176

83:                                               ; preds = %80
  %84 = load ptr, ptr %6, align 8, !tbaa !35
  %85 = getelementptr inbounds nuw %struct.AVEncryptionInitInfo, ptr %84, i32 0, i32 1
  %86 = load i32, ptr %85, align 8, !tbaa !41
  %87 = call i32 @av_bswap32(i32 noundef %86) #6
  %88 = load ptr, ptr %8, align 8, !tbaa !23
  store i32 %87, ptr %88, align 1, !tbaa !26
  %89 = load ptr, ptr %6, align 8, !tbaa !35
  %90 = getelementptr inbounds nuw %struct.AVEncryptionInitInfo, ptr %89, i32 0, i32 3
  %91 = load i32, ptr %90, align 8, !tbaa !43
  %92 = call i32 @av_bswap32(i32 noundef %91) #6
  %93 = load ptr, ptr %8, align 8, !tbaa !23
  %94 = getelementptr inbounds i8, ptr %93, i64 4
  store i32 %92, ptr %94, align 1, !tbaa !26
  %95 = load ptr, ptr %6, align 8, !tbaa !35
  %96 = getelementptr inbounds nuw %struct.AVEncryptionInitInfo, ptr %95, i32 0, i32 4
  %97 = load i32, ptr %96, align 4, !tbaa !44
  %98 = call i32 @av_bswap32(i32 noundef %97) #6
  %99 = load ptr, ptr %8, align 8, !tbaa !23
  %100 = getelementptr inbounds i8, ptr %99, i64 8
  store i32 %98, ptr %100, align 1, !tbaa !26
  %101 = load ptr, ptr %6, align 8, !tbaa !35
  %102 = getelementptr inbounds nuw %struct.AVEncryptionInitInfo, ptr %101, i32 0, i32 6
  %103 = load i32, ptr %102, align 8, !tbaa !46
  %104 = call i32 @av_bswap32(i32 noundef %103) #6
  %105 = load ptr, ptr %8, align 8, !tbaa !23
  %106 = getelementptr inbounds i8, ptr %105, i64 12
  store i32 %104, ptr %106, align 1, !tbaa !26
  %107 = load ptr, ptr %8, align 8, !tbaa !23
  %108 = getelementptr inbounds i8, ptr %107, i64 16
  store ptr %108, ptr %8, align 8, !tbaa !23
  %109 = load ptr, ptr %8, align 8, !tbaa !23
  %110 = load ptr, ptr %6, align 8, !tbaa !35
  %111 = getelementptr inbounds nuw %struct.AVEncryptionInitInfo, ptr %110, i32 0, i32 0
  %112 = load ptr, ptr %111, align 8, !tbaa !37
  %113 = load ptr, ptr %6, align 8, !tbaa !35
  %114 = getelementptr inbounds nuw %struct.AVEncryptionInitInfo, ptr %113, i32 0, i32 1
  %115 = load i32, ptr %114, align 8, !tbaa !41
  %116 = zext i32 %115 to i64
  call void @llvm.memcpy.p0.p0.i64(ptr align 1 %109, ptr align 1 %112, i64 %116, i1 false)
  %117 = load ptr, ptr %6, align 8, !tbaa !35
  %118 = getelementptr inbounds nuw %struct.AVEncryptionInitInfo, ptr %117, i32 0, i32 1
  %119 = load i32, ptr %118, align 8, !tbaa !41
  %120 = load ptr, ptr %8, align 8, !tbaa !23
  %121 = zext i32 %119 to i64
  %122 = getelementptr inbounds nuw i8, ptr %120, i64 %121
  store ptr %122, ptr %8, align 8, !tbaa !23
  store i32 0, ptr %9, align 4, !tbaa !4
  br label %123

123:                                              ; preds = %148, %83
  %124 = load i32, ptr %9, align 4, !tbaa !4
  %125 = load ptr, ptr %6, align 8, !tbaa !35
  %126 = getelementptr inbounds nuw %struct.AVEncryptionInitInfo, ptr %125, i32 0, i32 3
  %127 = load i32, ptr %126, align 8, !tbaa !43
  %128 = icmp ult i32 %124, %127
  br i1 %128, label %129, label %151

129:                                              ; preds = %123
  %130 = load ptr, ptr %8, align 8, !tbaa !23
  %131 = load ptr, ptr %6, align 8, !tbaa !35
  %132 = getelementptr inbounds nuw %struct.AVEncryptionInitInfo, ptr %131, i32 0, i32 2
  %133 = load ptr, ptr %132, align 8, !tbaa !42
  %134 = load i32, ptr %9, align 4, !tbaa !4
  %135 = zext i32 %134 to i64
  %136 = getelementptr inbounds nuw ptr, ptr %133, i64 %135
  %137 = load ptr, ptr %136, align 8, !tbaa !23
  %138 = load ptr, ptr %6, align 8, !tbaa !35
  %139 = getelementptr inbounds nuw %struct.AVEncryptionInitInfo, ptr %138, i32 0, i32 4
  %140 = load i32, ptr %139, align 4, !tbaa !44
  %141 = zext i32 %140 to i64
  call void @llvm.memcpy.p0.p0.i64(ptr align 1 %130, ptr align 1 %137, i64 %141, i1 false)
  %142 = load ptr, ptr %6, align 8, !tbaa !35
  %143 = getelementptr inbounds nuw %struct.AVEncryptionInitInfo, ptr %142, i32 0, i32 4
  %144 = load i32, ptr %143, align 4, !tbaa !44
  %145 = load ptr, ptr %8, align 8, !tbaa !23
  %146 = zext i32 %144 to i64
  %147 = getelementptr inbounds nuw i8, ptr %145, i64 %146
  store ptr %147, ptr %8, align 8, !tbaa !23
  br label %148

148:                                              ; preds = %129
  %149 = load i32, ptr %9, align 4, !tbaa !4
  %150 = add i32 %149, 1
  store i32 %150, ptr %9, align 4, !tbaa !4
  br label %123, !llvm.loop !53

151:                                              ; preds = %123
  %152 = load ptr, ptr %6, align 8, !tbaa !35
  %153 = getelementptr inbounds nuw %struct.AVEncryptionInitInfo, ptr %152, i32 0, i32 6
  %154 = load i32, ptr %153, align 8, !tbaa !46
  %155 = icmp ugt i32 %154, 0
  br i1 %155, label %156, label %171

156:                                              ; preds = %151
  %157 = load ptr, ptr %8, align 8, !tbaa !23
  %158 = load ptr, ptr %6, align 8, !tbaa !35
  %159 = getelementptr inbounds nuw %struct.AVEncryptionInitInfo, ptr %158, i32 0, i32 5
  %160 = load ptr, ptr %159, align 8, !tbaa !45
  %161 = load ptr, ptr %6, align 8, !tbaa !35
  %162 = getelementptr inbounds nuw %struct.AVEncryptionInitInfo, ptr %161, i32 0, i32 6
  %163 = load i32, ptr %162, align 8, !tbaa !46
  %164 = zext i32 %163 to i64
  call void @llvm.memcpy.p0.p0.i64(ptr align 1 %157, ptr align 1 %160, i64 %164, i1 false)
  %165 = load ptr, ptr %6, align 8, !tbaa !35
  %166 = getelementptr inbounds nuw %struct.AVEncryptionInitInfo, ptr %165, i32 0, i32 6
  %167 = load i32, ptr %166, align 8, !tbaa !46
  %168 = load ptr, ptr %8, align 8, !tbaa !23
  %169 = zext i32 %167 to i64
  %170 = getelementptr inbounds nuw i8, ptr %168, i64 %169
  store ptr %170, ptr %8, align 8, !tbaa !23
  br label %171

171:                                              ; preds = %156, %151
  br label %172

172:                                              ; preds = %171
  %173 = load ptr, ptr %6, align 8, !tbaa !35
  %174 = getelementptr inbounds nuw %struct.AVEncryptionInitInfo, ptr %173, i32 0, i32 7
  %175 = load ptr, ptr %174, align 8, !tbaa !49
  store ptr %175, ptr %6, align 8, !tbaa !35
  br label %80, !llvm.loop !54

176:                                              ; preds = %80
  %177 = load ptr, ptr %7, align 8, !tbaa !23
  store ptr %177, ptr %3, align 8
  store i32 1, ptr %12, align 4
  br label %178

178:                                              ; preds = %176, %72, %57, %35
  call void @llvm.lifetime.end.p0(i64 8, ptr %11) #5
  call void @llvm.lifetime.end.p0(i64 4, ptr %10) #5
  call void @llvm.lifetime.end.p0(i64 4, ptr %9) #5
  call void @llvm.lifetime.end.p0(i64 8, ptr %8) #5
  call void @llvm.lifetime.end.p0(i64 8, ptr %7) #5
  call void @llvm.lifetime.end.p0(i64 8, ptr %6) #5
  %179 = load ptr, ptr %3, align 8
  ret ptr %179
}