; Function Attrs: nounwind uwtable
define noalias ptr @av_encryption_init_info_add_side_data(ptr noundef readonly captures(address_is_null) %0, ptr noundef writeonly captures(none) %1) local_unnamed_addr #0 {
  %.not74 = icmp eq ptr %0, null
  br i1 %.not74, label %._crit_edge, label %.lr.ph

.lr.ph:                                           ; preds = %2, %26
  %.077 = phi i64 [ %.1, %26 ], [ 4, %2 ]
  %.05576 = phi i32 [ %15, %26 ], [ 0, %2 ]
  %.06075 = phi ptr [ %28, %26 ], [ %0, %2 ]
  %3 = getelementptr inbounds nuw i8, ptr %.06075, i64 8
  %4 = load i32, ptr %3, align 8, !tbaa !34
  %5 = zext i32 %4 to i64
  %6 = getelementptr inbounds nuw i8, ptr %.06075, i64 40
  %7 = load i32, ptr %6, align 8, !tbaa !39
  %8 = zext i32 %7 to i64
  %9 = add nuw nsw i64 %.077, 16
  %10 = add nuw nsw i64 %9, %5
  %11 = add nuw nsw i64 %10, %8
  %12 = icmp eq i32 %.05576, -1
  %13 = icmp ugt i64 %11, 4294967295
  %or.cond = select i1 %12, i1 true, i1 %13
  br i1 %or.cond, label %.loopexit, label %14

14:                                               ; preds = %.lr.ph
  %15 = add nuw i32 %.05576, 1
  %16 = getelementptr inbounds nuw i8, ptr %.06075, i64 24
  %17 = load i32, ptr %16, align 8, !tbaa !36
  %.not70 = icmp eq i32 %17, 0
  br i1 %.not70, label %26, label %18

18:                                               ; preds = %14
  %19 = zext i32 %17 to i64
  %20 = getelementptr inbounds nuw i8, ptr %.06075, i64 28
  %21 = load i32, ptr %20, align 4, !tbaa !37
  %22 = zext i32 %21 to i64
  %23 = mul nuw i64 %22, %19
  %24 = add nuw i64 %23, %11
  %25 = icmp ugt i64 %24, 4294967295
  br i1 %25, label %.loopexit, label %26

26:                                               ; preds = %14, %18
  %.1 = phi i64 [ %24, %18 ], [ %11, %14 ]
  %27 = getelementptr inbounds nuw i8, ptr %.06075, i64 48
  %28 = load ptr, ptr %27, align 8, !tbaa !43
  %.not = icmp eq ptr %28, null
  br i1 %.not, label %._crit_edge, label %.lr.ph, !llvm.loop !46

._crit_edge:                                      ; preds = %26, %2
  %.055.lcssa = phi i32 [ 0, %2 ], [ %15, %26 ]
  %.0.lcssa = phi i64 [ 4, %2 ], [ %.1, %26 ]
  store i64 %.0.lcssa, ptr %1, align 8, !tbaa !26
  %29 = tail call noalias ptr @av_malloc(i64 noundef %.0.lcssa) #4
  %.not67 = icmp eq ptr %29, null
  br i1 %.not67, label %.loopexit, label %30

30:                                               ; preds = %._crit_edge
  %31 = tail call i32 @llvm.bswap.i32(i32 %.055.lcssa)
  store i32 %31, ptr %29, align 1, !tbaa !20
  br i1 %.not74, label %.loopexit, label %.lr.ph89.preheader

.lr.ph89.preheader:                               ; preds = %30
  %32 = getelementptr inbounds nuw i8, ptr %29, i64 4
  br label %.lr.ph89

.lr.ph89:                                         ; preds = %.lr.ph89.preheader, %77
  %.05787 = phi ptr [ %.2, %77 ], [ %32, %.lr.ph89.preheader ]
  %.16186 = phi ptr [ %79, %77 ], [ %0, %.lr.ph89.preheader ]
  %33 = getelementptr inbounds nuw i8, ptr %.16186, i64 8
  %34 = load i32, ptr %33, align 8, !tbaa !34
  %35 = tail call i32 @llvm.bswap.i32(i32 %34)
  store i32 %35, ptr %.05787, align 1, !tbaa !20
  %36 = getelementptr inbounds nuw i8, ptr %.16186, i64 24
  %37 = load i32, ptr %36, align 8, !tbaa !36
  %38 = tail call i32 @llvm.bswap.i32(i32 %37)
  %39 = getelementptr inbounds nuw i8, ptr %.05787, i64 4
  store i32 %38, ptr %39, align 1, !tbaa !20
  %40 = getelementptr inbounds nuw i8, ptr %.16186, i64 28
  %41 = load i32, ptr %40, align 4, !tbaa !37
  %42 = tail call i32 @llvm.bswap.i32(i32 %41)
  %43 = getelementptr inbounds nuw i8, ptr %.05787, i64 8
  store i32 %42, ptr %43, align 1, !tbaa !20
  %44 = getelementptr inbounds nuw i8, ptr %.16186, i64 40
  %45 = load i32, ptr %44, align 8, !tbaa !39
  %46 = tail call i32 @llvm.bswap.i32(i32 %45)
  %47 = getelementptr inbounds nuw i8, ptr %.05787, i64 12
  store i32 %46, ptr %47, align 1, !tbaa !20
  %48 = getelementptr inbounds nuw i8, ptr %.05787, i64 16
  %49 = load ptr, ptr %.16186, align 8, !tbaa !29
  %50 = load i32, ptr %33, align 8, !tbaa !34
  %51 = zext i32 %50 to i64
  tail call void @llvm.memcpy.p0.p0.i64(ptr nonnull align 1 %48, ptr align 1 %49, i64 %51, i1 false)
  %52 = load i32, ptr %33, align 8, !tbaa !34
  %53 = zext i32 %52 to i64
  %54 = getelementptr inbounds nuw i8, ptr %48, i64 %53
  %55 = load i32, ptr %36, align 8, !tbaa !36
  %.not90 = icmp eq i32 %55, 0
  br i1 %.not90, label %._crit_edge83, label %.lr.ph82

.lr.ph82:                                         ; preds = %.lr.ph89
  %56 = getelementptr inbounds nuw i8, ptr %.16186, i64 16
  %.pre = load i32, ptr %40, align 4, !tbaa !37
  br label %57

57:                                               ; preds = %.lr.ph82, %57
  %58 = phi i32 [ %.pre, %.lr.ph82 ], [ %63, %57 ]
  %indvars.iv = phi i64 [ 0, %.lr.ph82 ], [ %indvars.iv.next, %57 ]
  %.15879 = phi ptr [ %54, %.lr.ph82 ], [ %65, %57 ]
  %59 = load ptr, ptr %56, align 8, !tbaa !35
  %60 = getelementptr inbounds nuw ptr, ptr %59, i64 %indvars.iv
  %61 = load ptr, ptr %60, align 8, !tbaa !41
  %62 = zext i32 %58 to i64
  tail call void @llvm.memcpy.p0.p0.i64(ptr align 1 %.15879, ptr align 1 %61, i64 %62, i1 false)
  %63 = load i32, ptr %40, align 4, !tbaa !37
  %64 = zext i32 %63 to i64
  %65 = getelementptr inbounds nuw i8, ptr %.15879, i64 %64
  %indvars.iv.next = add nuw nsw i64 %indvars.iv, 1
  %66 = load i32, ptr %36, align 8, !tbaa !36
  %67 = zext i32 %66 to i64
  %68 = icmp samesign ult i64 %indvars.iv.next, %67
  br i1 %68, label %57, label %._crit_edge83, !llvm.loop !47

._crit_edge83:                                    ; preds = %57, %.lr.ph89
  %.158.lcssa = phi ptr [ %54, %.lr.ph89 ], [ %65, %57 ]
  %69 = load i32, ptr %44, align 8, !tbaa !39
  %.not69 = icmp eq i32 %69, 0
  br i1 %.not69, label %77, label %70

70:                                               ; preds = %._crit_edge83
  %71 = getelementptr inbounds nuw i8, ptr %.16186, i64 32
  %72 = load ptr, ptr %71, align 8, !tbaa !38
  %73 = zext i32 %69 to i64
  tail call void @llvm.memcpy.p0.p0.i64(ptr align 1 %.158.lcssa, ptr align 1 %72, i64 %73, i1 false)
  %74 = load i32, ptr %44, align 8, !tbaa !39
  %75 = zext i32 %74 to i64
  %76 = getelementptr inbounds nuw i8, ptr %.158.lcssa, i64 %75
  br label %77

77:                                               ; preds = %._crit_edge83, %70
  %.2 = phi ptr [ %76, %70 ], [ %.158.lcssa, %._crit_edge83 ]
  %78 = getelementptr inbounds nuw i8, ptr %.16186, i64 48
  %79 = load ptr, ptr %78, align 8, !tbaa !43
  %.not68 = icmp eq ptr %79, null
  br i1 %.not68, label %.loopexit, label %.lr.ph89, !llvm.loop !48

.loopexit:                                        ; preds = %18, %.lr.ph, %77, %30, %._crit_edge
  %.059 = phi ptr [ null, %._crit_edge ], [ %29, %30 ], [ %29, %77 ], [ null, %.lr.ph ], [ null, %18 ]
  ret ptr %.059
}